; Function Attrs: uwtable
define void @_ZThn16_NK16CubizationPlugin16pythonFilterNameEi(ptr dead_on_unwind noalias writable sret(%class.QString) align 8 %0, ptr nocapture noundef readnone %1, i32 noundef %2) unnamed_addr #14 align 2 {
  %cond.i = icmp eq i32 %2, 0
  br i1 %cond.i, label %4, label %5

4:                                                ; preds = %3
  tail call void @_ZNK11QMetaObject2trEPKcS1_i(ptr dead_on_unwind writable sret(%class.QString) align 8 %0, ptr noundef nonnull align 8 dereferenceable(48) @_ZN16CubizationPlugin16staticMetaObjectE, ptr noundef nonnull @.str.8, ptr noundef null, i32 noundef -1)
  br label %_ZNK16CubizationPlugin16pythonFilterNameEi.exit

5:                                                ; preds = %3
  store ptr @_ZN10QArrayData11shared_nullE, ptr %0, align 8, !alias.scope !19
  br label %_ZNK16CubizationPlugin16pythonFilterNameEi.exit

_ZNK16CubizationPlugin16pythonFilterNameEi.exit:  ; preds = %4, %5
  ret void
}